target datalayout = "e-m:e-p270:32:32-p271:32:32-p272:64:64-i64:64-i128:128-f80:128-n8:16:32:64-S128"
target triple = "x86_64-pc-linux-gnu"

%struct.IDAMemRec = type { ptr, double, ptr, ptr, i32, double, double, ptr, i32, i32, ptr, ptr, i32, i32, i32, ptr, ptr, i32, i32, double, double, ptr, i32, i32, i32, i32, ptr, ptr, i32, ptr, ptr, ptr, i32, double, i32, i32, double, ptr, ptr, ptr, i32, ptr, ptr, i32, i32, i32, double, ptr, ptr, ptr, [6 x ptr], [6 x double], [6 x double], [6 x double], [6 x double], [6 x double], ptr, ptr, ptr, ptr, ptr, ptr, ptr, ptr, ptr, ptr, ptr, ptr, ptr, ptr, ptr, ptr, ptr, [6 x ptr], ptr, ptr, ptr, ptr, [6 x ptr], ptr, ptr, ptr, ptr, ptr, ptr, ptr, ptr, ptr, ptr, ptr, ptr, ptr, ptr, ptr, ptr, [6 x ptr], ptr, ptr, ptr, ptr, ptr, double, ptr, ptr, i32, i32, i32, i32, i32, i32, i32, i32, double, double, double, i32, double, i32, i32, i32, i32, i32, double, double, double, double, double, double, double, double, double, double, double, double, double, double, double, double, double, i32, i32, i32, i32, i64, double, double, double, double, double, double, double, double, double, i64, i64, i64, i64, i64, i64, i64, i64, i64, i64, i64, i64, i64, i64, i64, i64, i64, i64, i64, i64, i64, i64, i64, i64, i64, i64, double, i32, i32, i32, i32, i32, i32, i32, i32, i32, i32, i32, i32, i32, ptr, i32, ptr, i32, ptr, i32, ptr, ptr, ptr, ptr, ptr, ptr, i32, i32, ptr, ptr, ptr, ptr, ptr, ptr, ptr, double, i32, i32, ptr, i32, ptr, ptr, double, double, double, ptr, ptr, ptr, double, double, i32, i32, i64, ptr, i32, ptr, [5 x double], ptr, ptr, i32, ptr, i32 }

@.str = private unnamed_addr constant [111 x i8] c"generated/home/dtcxzyw/WorkSpace/Projects/compilers/llvm-opt-benchmark/bench/sundials/sundials/src/idas/idas.c\00", align 1
@.str.3 = private unnamed_addr constant [24 x i8] c"ida_mem = NULL illegal.\00", align 1
@.str.26 = private unnamed_addr constant [73 x i8] c"Forward sensitivity analysis for quadrature variables was not activated.\00", align 1
@.str.49 = private unnamed_addr constant [20 x i8] c"dky = NULL illegal.\00", align 1
@__func__.IDAGetQuadSens = private unnamed_addr constant [15 x i8] c"IDAGetQuadSens\00", align 1

; Function Attrs: nounwind uwtable
define i32 @IDAGetQuadSens(ptr noundef %0, ptr noundef %1, ptr noundef %2) #0 {
  %4 = alloca i32, align 4
  %5 = alloca ptr, align 8
  %6 = alloca ptr, align 8
  %7 = alloca ptr, align 8
  %8 = alloca ptr, align 8
  %9 = alloca i32, align 4
  %10 = alloca i32, align 4
  %11 = alloca i32, align 4
  store ptr %0, ptr %5, align 8, !tbaa !126
  store ptr %1, ptr %6, align 8, !tbaa !223
  store ptr %2, ptr %7, align 8, !tbaa !125
  call void @llvm.lifetime.start.p0(i64 8, ptr %8) #10
  call void @llvm.lifetime.start.p0(i64 4, ptr %9) #10
  call void @llvm.lifetime.start.p0(i64 4, ptr %10) #10
  store i32 0, ptr %10, align 4, !tbaa !114
  %12 = load ptr, ptr %5, align 8, !tbaa !126
  %13 = icmp eq ptr %12, null
  br i1 %13, label %14, label %15

14:                                               ; preds = %3
  call void (ptr, i32, i32, ptr, ptr, ptr, ...) @IDAProcessError(ptr noundef null, i32 noundef -20, i32 noundef 3634, ptr noundef @__func__.IDAGetQuadSens, ptr noundef @.str, ptr noundef @.str.3)
  store i32 -20, ptr %4, align 4
  store i32 1, ptr %11, align 4
  br label %58

15:                                               ; preds = %3
  %16 = load ptr, ptr %5, align 8, !tbaa !126
  store ptr %16, ptr %8, align 8, !tbaa !8
  %17 = load ptr, ptr %7, align 8, !tbaa !125
  %18 = icmp eq ptr %17, null
  br i1 %18, label %19, label %21

19:                                               ; preds = %15
  %20 = load ptr, ptr %8, align 8, !tbaa !8
  call void (ptr, i32, i32, ptr, ptr, ptr, ...) @IDAProcessError(ptr noundef %20, i32 noundef -27, i32 noundef 3644, ptr noundef @__func__.IDAGetQuadSens, ptr noundef @.str, ptr noundef @.str.49)
  store i32 -27, ptr %4, align 4
  store i32 1, ptr %11, align 4
  br label %58

21:                                               ; preds = %15
  %22 = load ptr, ptr %8, align 8, !tbaa !8
  %23 = getelementptr inbounds nuw %struct.IDAMemRec, ptr %22, i32 0, i32 40
  %24 = load i32, ptr %23, align 8, !tbaa !76
  %25 = icmp eq i32 %24, 0
  br i1 %25, label %26, label %28

26:                                               ; preds = %21
  %27 = load ptr, ptr %8, align 8, !tbaa !8
  call void (ptr, i32, i32, ptr, ptr, ptr, ...) @IDAProcessError(ptr noundef %27, i32 noundef -40, i32 noundef 3653, ptr noundef @__func__.IDAGetQuadSens, ptr noundef @.str, ptr noundef @.str.26)
  store i32 -40, ptr %4, align 4
  store i32 1, ptr %11, align 4
  br label %58

28:                                               ; preds = %21
  %29 = load ptr, ptr %8, align 8, !tbaa !8
  %30 = getelementptr inbounds nuw %struct.IDAMemRec, ptr %29, i32 0, i32 128
  %31 = load double, ptr %30, align 8, !tbaa !247
  %32 = load ptr, ptr %6, align 8, !tbaa !223
  store double %31, ptr %32, align 8, !tbaa !123
  store i32 0, ptr %9, align 4, !tbaa !114
  br label %33

33:                                               ; preds = %53, %28
  %34 = load i32, ptr %9, align 4, !tbaa !114
  %35 = load ptr, ptr %8, align 8, !tbaa !8
  %36 = getelementptr inbounds nuw %struct.IDAMemRec, ptr %35, i32 0, i32 24
  %37 = load i32, ptr %36, align 8, !tbaa !203
  %38 = icmp slt i32 %34, %37
  br i1 %38, label %39, label %56

39:                                               ; preds = %33
  %40 = load ptr, ptr %5, align 8, !tbaa !126
  %41 = load ptr, ptr %6, align 8, !tbaa !223
  %42 = load double, ptr %41, align 8, !tbaa !123
  %43 = load i32, ptr %9, align 4, !tbaa !114
  %44 = load ptr, ptr %7, align 8, !tbaa !125
  %45 = load i32, ptr %9, align 4, !tbaa !114
  %46 = sext i32 %45 to i64
  %47 = getelementptr inbounds ptr, ptr %44, i64 %46
  %48 = load ptr, ptr %47, align 8, !tbaa !124
  %49 = call i32 @IDAGetQuadSensDky1(ptr noundef %40, double noundef %42, i32 noundef 0, i32 noundef %43, ptr noundef %48)
  store i32 %49, ptr %10, align 4, !tbaa !114
  %50 = icmp ne i32 0, %49
  br i1 %50, label %51, label %52

51:                                               ; preds = %39
  br label %56

52:                                               ; preds = %39
  br label %53

53:                                               ; preds = %52
  %54 = load i32, ptr %9, align 4, !tbaa !114
  %55 = add nsw i32 %54, 1
  store i32 %55, ptr %9, align 4, !tbaa !114
  br label %33

56:                                               ; preds = %51, %33
  %57 = load i32, ptr %10, align 4, !tbaa !114
  store i32 %57, ptr %4, align 4
  store i32 1, ptr %11, align 4
  br label %58

58:                                               ; preds = %56, %26, %19, %14
  call void @llvm.lifetime.end.p0(i64 4, ptr %10) #10
  call void @llvm.lifetime.end.p0(i64 4, ptr %9) #10
  call void @llvm.lifetime.end.p0(i64 8, ptr %8) #10
  %59 = load i32, ptr %4, align 4
  ret i32 %59
}